; Function Attrs: nounwind uwtable
define ptr @l_List_foldl___at_Lean_KVMap_instToString___spec__2(ptr noundef %0, ptr noundef %1) local_unnamed_addr #0 {
  br label %lean_dec.exit

lean_dec.exit:                                    ; preds = %lean_dec.exit.backedge, %2
  %.032 = phi ptr [ %1, %2 ], [ %25, %lean_dec.exit.backedge ]
  %.0 = phi ptr [ %0, %2 ], [ %97, %lean_dec.exit.backedge ]
  %3 = ptrtoint ptr %.032 to i64
  %4 = and i64 %3, 1
  %.not.i48 = icmp eq i64 %4, 0
  br i1 %.not.i48, label %8, label %5

5:                                                ; preds = %lean_dec.exit
  %6 = lshr i64 %3, 1
  %7 = trunc i64 %6 to i32
  br label %lean_obj_tag.exit

8:                                                ; preds = %lean_dec.exit
  %9 = getelementptr i8, ptr %.032, i64 4
  %.val.i = load i32, ptr %9, align 4
  %10 = lshr i32 %.val.i, 24
  br label %lean_obj_tag.exit

lean_obj_tag.exit:                                ; preds = %5, %8
  %.0.i = phi i32 [ %7, %5 ], [ %10, %8 ]
  %11 = icmp eq i32 %.0.i, 0
  br i1 %11, label %12, label %13

12:                                               ; preds = %lean_obj_tag.exit
  ret ptr %.0

13:                                               ; preds = %lean_obj_tag.exit
  %14 = getelementptr inbounds nuw i8, ptr %.032, i64 8
  %15 = load ptr, ptr %14, align 8, !tbaa !4
  %16 = ptrtoint ptr %15 to i64
  %17 = and i64 %16, 1
  %.not = icmp eq i64 %17, 0
  br i1 %.not, label %18, label %lean_inc.exit35

18:                                               ; preds = %13
  %.val.i49 = load i32, ptr %15, align 4, !tbaa !8
  %19 = icmp sgt i32 %.val.i49, 0
  br i1 %19, label %20, label %22, !prof !11

20:                                               ; preds = %18
  %21 = add nuw i32 %.val.i49, 1
  store i32 %21, ptr %15, align 4, !tbaa !8
  br label %lean_inc.exit35

22:                                               ; preds = %18
  %.not.i50 = icmp eq i32 %.val.i49, 0
  br i1 %.not.i50, label %lean_inc.exit35, label %23

23:                                               ; preds = %22
  tail call void @lean_inc_ref_cold(ptr noundef nonnull %15) #6
  br label %lean_inc.exit35

lean_inc.exit35:                                  ; preds = %23, %22, %20, %13
  %24 = getelementptr inbounds nuw i8, ptr %.032, i64 16
  %25 = load ptr, ptr %24, align 8, !tbaa !4
  %26 = ptrtoint ptr %25 to i64
  %27 = and i64 %26, 1
  %.not60 = icmp eq i64 %27, 0
  br i1 %.not60, label %28, label %lean_inc.exit34

28:                                               ; preds = %lean_inc.exit35
  %.val.i51 = load i32, ptr %25, align 4, !tbaa !8
  %29 = icmp sgt i32 %.val.i51, 0
  br i1 %29, label %30, label %32, !prof !11

30:                                               ; preds = %28
  %31 = add nuw i32 %.val.i51, 1
  store i32 %31, ptr %25, align 4, !tbaa !8
  br label %lean_inc.exit34

32:                                               ; preds = %28
  %.not.i52 = icmp eq i32 %.val.i51, 0
  br i1 %.not.i52, label %lean_inc.exit34, label %33

33:                                               ; preds = %32
  tail call void @lean_inc_ref_cold(ptr noundef nonnull %25) #6
  br label %lean_inc.exit34

lean_inc.exit34:                                  ; preds = %33, %32, %30, %lean_inc.exit35
  br i1 %.not.i48, label %34, label %lean_dec.exit39

34:                                               ; preds = %lean_inc.exit34
  %35 = load i32, ptr %.032, align 4, !tbaa !8
  %36 = icmp sgt i32 %35, 1
  br i1 %36, label %37, label %39, !prof !11

37:                                               ; preds = %34
  %38 = add nsw i32 %35, -1
  store i32 %38, ptr %.032, align 4, !tbaa !8
  br label %lean_dec.exit39

39:                                               ; preds = %34
  %.not.i = icmp eq i32 %35, 0
  br i1 %.not.i, label %lean_dec.exit39, label %40

40:                                               ; preds = %39
  tail call void @lean_dec_ref_cold(ptr noundef nonnull %.032) #6
  br label %lean_dec.exit39

lean_dec.exit39:                                  ; preds = %40, %39, %37, %lean_inc.exit34
  %41 = load ptr, ptr @l_List_foldl___at_Lean_KVMap_instToString___spec__2___closed__1, align 8, !tbaa !4
  %42 = tail call ptr @lean_string_append(ptr noundef %.0, ptr noundef %41) #6
  %43 = getelementptr inbounds nuw i8, ptr %15, i64 8
  %44 = load ptr, ptr %43, align 8, !tbaa !4
  %45 = ptrtoint ptr %44 to i64
  %46 = and i64 %45, 1
  %.not62 = icmp eq i64 %46, 0
  br i1 %.not62, label %47, label %lean_inc.exit33

47:                                               ; preds = %lean_dec.exit39
  %.val.i54 = load i32, ptr %44, align 4, !tbaa !8
  %48 = icmp sgt i32 %.val.i54, 0
  br i1 %48, label %49, label %51, !prof !11

49:                                               ; preds = %47
  %50 = add nuw i32 %.val.i54, 1
  store i32 %50, ptr %44, align 4, !tbaa !8
  br label %lean_inc.exit33

51:                                               ; preds = %47
  %.not.i55 = icmp eq i32 %.val.i54, 0
  br i1 %.not.i55, label %lean_inc.exit33, label %52

52:                                               ; preds = %51
  tail call void @lean_inc_ref_cold(ptr noundef nonnull %44) #6
  br label %lean_inc.exit33

lean_inc.exit33:                                  ; preds = %52, %51, %49, %lean_dec.exit39
  %53 = getelementptr inbounds nuw i8, ptr %15, i64 16
  %54 = load ptr, ptr %53, align 8, !tbaa !4
  %55 = ptrtoint ptr %54 to i64
  %56 = and i64 %55, 1
  %.not63 = icmp eq i64 %56, 0
  br i1 %.not63, label %57, label %lean_inc.exit

57:                                               ; preds = %lean_inc.exit33
  %.val.i57 = load i32, ptr %54, align 4, !tbaa !8
  %58 = icmp sgt i32 %.val.i57, 0
  br i1 %58, label %59, label %61, !prof !11

59:                                               ; preds = %57
  %60 = add nuw i32 %.val.i57, 1
  store i32 %60, ptr %54, align 4, !tbaa !8
  br label %lean_inc.exit

61:                                               ; preds = %57
  %.not.i58 = icmp eq i32 %.val.i57, 0
  br i1 %.not.i58, label %lean_inc.exit, label %62

62:                                               ; preds = %61
  tail call void @lean_inc_ref_cold(ptr noundef nonnull %54) #6
  br label %lean_inc.exit

lean_inc.exit:                                    ; preds = %62, %61, %59, %lean_inc.exit33
  br i1 %.not, label %63, label %lean_dec.exit38

63:                                               ; preds = %lean_inc.exit
  %64 = load i32, ptr %15, align 4, !tbaa !8
  %65 = icmp sgt i32 %64, 1
  br i1 %65, label %66, label %68, !prof !11

66:                                               ; preds = %63
  %67 = add nsw i32 %64, -1
  store i32 %67, ptr %15, align 4, !tbaa !8
  br label %lean_dec.exit38

68:                                               ; preds = %63
  %.not.i40 = icmp eq i32 %64, 0
  br i1 %.not.i40, label %lean_dec.exit38, label %69

69:                                               ; preds = %68
  tail call void @lean_dec_ref_cold(ptr noundef nonnull %15) #6
  br label %lean_dec.exit38

lean_dec.exit38:                                  ; preds = %69, %68, %66, %lean_inc.exit
  %70 = load ptr, ptr @l_Lean_DataValue_str___closed__3, align 8, !tbaa !4
  %71 = tail call ptr @l_Lean_Name_toString(ptr noundef %44, i8 noundef zeroext 1, ptr noundef %70) #6
  %72 = load ptr, ptr @l_Prod_repr___at___private_Lean_Data_KVMap_0__Lean_reprKVMap____x40_Lean_Data_KVMap___hyg_920____spec__3___closed__4, align 8, !tbaa !4
  %73 = tail call ptr @lean_string_append(ptr noundef %72, ptr noundef %71) #6
  %74 = ptrtoint ptr %71 to i64
  %75 = and i64 %74, 1
  %.not64 = icmp eq i64 %75, 0
  br i1 %.not64, label %76, label %lean_dec.exit37

76:                                               ; preds = %lean_dec.exit38
  %77 = load i32, ptr %71, align 4, !tbaa !8
  %78 = icmp sgt i32 %77, 1
  br i1 %78, label %79, label %81, !prof !11

79:                                               ; preds = %76
  %80 = add nsw i32 %77, -1
  store i32 %80, ptr %71, align 4, !tbaa !8
  br label %lean_dec.exit37

81:                                               ; preds = %76
  %.not.i42 = icmp eq i32 %77, 0
  br i1 %.not.i42, label %lean_dec.exit37, label %82

82:                                               ; preds = %81
  tail call void @lean_dec_ref_cold(ptr noundef nonnull %71) #6
  br label %lean_dec.exit37

lean_dec.exit37:                                  ; preds = %82, %81, %79, %lean_dec.exit38
  %83 = tail call ptr @lean_string_append(ptr noundef %73, ptr noundef %41) #6
  %84 = tail call ptr @lean_data_value_to_string(ptr noundef %54)
  %85 = tail call ptr @lean_string_append(ptr noundef %83, ptr noundef %84) #6
  %86 = ptrtoint ptr %84 to i64
  %87 = and i64 %86, 1
  %.not65 = icmp eq i64 %87, 0
  br i1 %.not65, label %88, label %lean_dec.exit36

88:                                               ; preds = %lean_dec.exit37
  %89 = load i32, ptr %84, align 4, !tbaa !8
  %90 = icmp sgt i32 %89, 1
  br i1 %90, label %91, label %93, !prof !11

91:                                               ; preds = %88
  %92 = add nsw i32 %89, -1
  store i32 %92, ptr %84, align 4, !tbaa !8
  br label %lean_dec.exit36

93:                                               ; preds = %88
  %.not.i44 = icmp eq i32 %89, 0
  br i1 %.not.i44, label %lean_dec.exit36, label %94

94:                                               ; preds = %93
  tail call void @lean_dec_ref_cold(ptr noundef nonnull %84) #6
  br label %lean_dec.exit36

lean_dec.exit36:                                  ; preds = %94, %93, %91, %lean_dec.exit37
  %95 = load ptr, ptr @l_Prod_repr___at___private_Lean_Data_KVMap_0__Lean_reprKVMap____x40_Lean_Data_KVMap___hyg_920____spec__3___closed__8, align 8, !tbaa !4
  %96 = tail call ptr @lean_string_append(ptr noundef %85, ptr noundef %95) #6
  %97 = tail call ptr @lean_string_append(ptr noundef %42, ptr noundef %96) #6
  %98 = ptrtoint ptr %96 to i64
  %99 = and i64 %98, 1
  %.not66 = icmp eq i64 %99, 0
  br i1 %.not66, label %100, label %lean_dec.exit.backedge

100:                                              ; preds = %lean_dec.exit36
  %101 = load i32, ptr %96, align 4, !tbaa !8
  %102 = icmp sgt i32 %101, 1
  br i1 %102, label %103, label %105, !prof !11

103:                                              ; preds = %100
  %104 = add nsw i32 %101, -1
  store i32 %104, ptr %96, align 4, !tbaa !8
  br label %lean_dec.exit.backedge

105:                                              ; preds = %100
  %.not.i46 = icmp eq i32 %101, 0
  br i1 %.not.i46, label %lean_dec.exit.backedge, label %106

106:                                              ; preds = %105
  tail call void @lean_dec_ref_cold(ptr noundef nonnull %96) #6
  br label %lean_dec.exit.backedge

lean_dec.exit.backedge:                           ; preds = %106, %105, %103, %lean_dec.exit36
  br label %lean_dec.exit
}